; Function Attrs: mustprogress nofree norecurse nosync nounwind willreturn memory(read, inaccessiblemem: none) uwtable
define noundef i32 @_ZN5fds_t6lookupEm(ptr nocapture noundef nonnull readonly align 8 dereferenceable(24) %0, i64 noundef %1) local_unnamed_addr #6 align 2 {
  %3 = and i64 %1, 4294967295
  %4 = icmp eq i64 %3, 4294967196
  br i1 %4, label %16, label %5

5:                                                ; preds = %2
  %6 = getelementptr inbounds i8, ptr %0, i64 8
  %7 = load ptr, ptr %6, align 8
  %8 = load ptr, ptr %0, align 8
  %9 = ptrtoint ptr %7 to i64
  %10 = ptrtoint ptr %8 to i64
  %11 = sub i64 %9, %10
  %12 = ashr exact i64 %11, 2
  %.not = icmp ugt i64 %12, %1
  br i1 %.not, label %13, label %16

13:                                               ; preds = %5
  %14 = getelementptr inbounds i32, ptr %8, i64 %1
  %15 = load i32, ptr %14, align 4
  br label %16

16:                                               ; preds = %13, %5, %2
  %.0 = phi i32 [ -100, %2 ], [ %15, %13 ], [ -1, %5 ]
  ret i32 %.0
}